target datalayout = "e-m:e-p270:32:32-p271:32:32-p272:64:64-i64:64-i128:128-f80:128-n8:16:32:64-S128"
target triple = "x86_64-pc-linux-gnu"

%union.jvalue = type { i64 }
%struct.JNINativeInterface_ = type { ptr, ptr, ptr, ptr, ptr, ptr, ptr, ptr, ptr, ptr, ptr, ptr, ptr, ptr, ptr, ptr, ptr, ptr, ptr, ptr, ptr, ptr, ptr, ptr, ptr, ptr, ptr, ptr, ptr, ptr, ptr, ptr, ptr, ptr, ptr, ptr, ptr, ptr, ptr, ptr, ptr, ptr, ptr, ptr, ptr, ptr, ptr, ptr, ptr, ptr, ptr, ptr, ptr, ptr, ptr, ptr, ptr, ptr, ptr, ptr, ptr, ptr, ptr, ptr, ptr, ptr, ptr, ptr, ptr, ptr, ptr, ptr, ptr, ptr, ptr, ptr, ptr, ptr, ptr, ptr, ptr, ptr, ptr, ptr, ptr, ptr, ptr, ptr, ptr, ptr, ptr, ptr, ptr, ptr, ptr, ptr, ptr, ptr, ptr, ptr, ptr, ptr, ptr, ptr, ptr, ptr, ptr, ptr, ptr, ptr, ptr, ptr, ptr, ptr, ptr, ptr, ptr, ptr, ptr, ptr, ptr, ptr, ptr, ptr, ptr, ptr, ptr, ptr, ptr, ptr, ptr, ptr, ptr, ptr, ptr, ptr, ptr, ptr, ptr, ptr, ptr, ptr, ptr, ptr, ptr, ptr, ptr, ptr, ptr, ptr, ptr, ptr, ptr, ptr, ptr, ptr, ptr, ptr, ptr, ptr, ptr, ptr, ptr, ptr, ptr, ptr, ptr, ptr, ptr, ptr, ptr, ptr, ptr, ptr, ptr, ptr, ptr, ptr, ptr, ptr, ptr, ptr, ptr, ptr, ptr, ptr, ptr, ptr, ptr, ptr, ptr, ptr, ptr, ptr, ptr, ptr, ptr, ptr, ptr, ptr, ptr, ptr, ptr, ptr, ptr, ptr, ptr, ptr, ptr, ptr, ptr, ptr, ptr, ptr, ptr, ptr, ptr, ptr, ptr, ptr, ptr, ptr, ptr, ptr, ptr, ptr, ptr, ptr, ptr, ptr, ptr, ptr, ptr, ptr, ptr }

@.str = private unnamed_addr constant [8 x i8] c"DEFAULT\00", align 1
@default_origin = internal global ptr null, align 8
@.str.1 = private unnamed_addr constant [12 x i8] c"VM_CREATION\00", align 1
@vm_creation_origin = internal global ptr null, align 8
@.str.2 = private unnamed_addr constant [11 x i8] c"MANAGEMENT\00", align 1
@mgmt_origin = internal global ptr null, align 8
@.str.3 = private unnamed_addr constant [12 x i8] c"ENVIRON_VAR\00", align 1
@envvar_origin = internal global ptr null, align 8
@.str.4 = private unnamed_addr constant [12 x i8] c"CONFIG_FILE\00", align 1
@config_file_origin = internal global ptr null, align 8
@.str.5 = private unnamed_addr constant [10 x i8] c"ERGONOMIC\00", align 1
@ergo_origin = internal global ptr null, align 8
@.str.6 = private unnamed_addr constant [17 x i8] c"ATTACH_ON_DEMAND\00", align 1
@attach_origin = internal global ptr null, align 8
@.str.7 = private unnamed_addr constant [6 x i8] c"OTHER\00", align 1
@other_origin = internal global ptr null, align 8
@.str.17 = private unnamed_addr constant [35 x i8] c"com/sun/management/VMOption$Origin\00", align 1
@.str.18 = private unnamed_addr constant [37 x i8] c"Lcom/sun/management/VMOption$Origin;\00", align 1

; Function Attrs: nounwind uwtable
define internal ptr @find_origin_constant(ptr noundef %0, ptr noundef %1) #0 {
  %3 = alloca ptr, align 8
  %4 = alloca ptr, align 8
  %5 = alloca %union.jvalue, align 8
  %6 = alloca %union.jvalue, align 8
  store ptr %0, ptr %3, align 8
  store ptr %1, ptr %4, align 8
  %7 = load ptr, ptr %3, align 8
  %8 = load ptr, ptr %4, align 8
  %9 = call i64 @JNU_GetStaticFieldByName(ptr noundef %7, ptr noundef null, ptr noundef @.str.17, ptr noundef %8, ptr noundef @.str.18)
  %10 = getelementptr inbounds %union.jvalue, ptr %6, i32 0, i32 0
  store i64 %9, ptr %10, align 8
  call void @llvm.memcpy.p0.p0.i64(ptr align 8 %5, ptr align 8 %6, i64 8, i1 false)
  %11 = load ptr, ptr %3, align 8
  %12 = load ptr, ptr %11, align 8
  %13 = getelementptr inbounds %struct.JNINativeInterface_, ptr %12, i32 0, i32 21
  %14 = load ptr, ptr %13, align 8
  %15 = load ptr, ptr %3, align 8
  %16 = load ptr, ptr %5, align 8
  %17 = call ptr %14(ptr noundef %15, ptr noundef %16)
  ret ptr %17
}

; Function Attrs: nounwind uwtable
define void @Java_com_sun_management_internal_Flag_initialize(ptr noundef %0, ptr noundef %1) #0 {
  %3 = alloca ptr, align 8
  %4 = alloca ptr, align 8
  store ptr %0, ptr %3, align 8
  store ptr %1, ptr %4, align 8
  %5 = load ptr, ptr %3, align 8
  %6 = call ptr @find_origin_constant(ptr noundef %5, ptr noundef @.str)
  store ptr %6, ptr @default_origin, align 8
  %7 = load ptr, ptr %3, align 8
  %8 = call ptr @find_origin_constant(ptr noundef %7, ptr noundef @.str.1)
  store ptr %8, ptr @vm_creation_origin, align 8
  %9 = load ptr, ptr %3, align 8
  %10 = call ptr @find_origin_constant(ptr noundef %9, ptr noundef @.str.2)
  store ptr %10, ptr @mgmt_origin, align 8
  %11 = load ptr, ptr %3, align 8
  %12 = call ptr @find_origin_constant(ptr noundef %11, ptr noundef @.str.3)
  store ptr %12, ptr @envvar_origin, align 8
  %13 = load ptr, ptr %3, align 8
  %14 = call ptr @find_origin_constant(ptr noundef %13, ptr noundef @.str.4)
  store ptr %14, ptr @config_file_origin, align 8
  %15 = load ptr, ptr %3, align 8
  %16 = call ptr @find_origin_constant(ptr noundef %15, ptr noundef @.str.5)
  store ptr %16, ptr @ergo_origin, align 8
  %17 = load ptr, ptr %3, align 8
  %18 = call ptr @find_origin_constant(ptr noundef %17, ptr noundef @.str.6)
  store ptr %18, ptr @attach_origin, align 8
  %19 = load ptr, ptr %3, align 8
  %20 = call ptr @find_origin_constant(ptr noundef %19, ptr noundef @.str.7)
  store ptr %20, ptr @other_origin, align 8
  ret void
}