; Function Attrs: nounwind uwtable
define void @Java_com_sun_management_internal_Flag_initialize(ptr noundef %0, ptr nocapture noundef readnone %1) local_unnamed_addr #0 {
  %3 = tail call i64 @JNU_GetStaticFieldByName(ptr noundef %0, ptr noundef null, ptr noundef nonnull @.str.17, ptr noundef nonnull @.str, ptr noundef nonnull @.str.18) #4
  %4 = load ptr, ptr %0, align 8
  %5 = getelementptr inbounds i8, ptr %4, i64 168
  %6 = load ptr, ptr %5, align 8
  %7 = inttoptr i64 %3 to ptr
  %8 = tail call ptr %6(ptr noundef nonnull %0, ptr noundef %7) #4
  store ptr %8, ptr @default_origin, align 8
  %9 = tail call i64 @JNU_GetStaticFieldByName(ptr noundef %0, ptr noundef null, ptr noundef nonnull @.str.17, ptr noundef nonnull @.str.1, ptr noundef nonnull @.str.18) #4
  %10 = load ptr, ptr %0, align 8
  %11 = getelementptr inbounds i8, ptr %10, i64 168
  %12 = load ptr, ptr %11, align 8
  %13 = inttoptr i64 %9 to ptr
  %14 = tail call ptr %12(ptr noundef nonnull %0, ptr noundef %13) #4
  store ptr %14, ptr @vm_creation_origin, align 8
  %15 = tail call i64 @JNU_GetStaticFieldByName(ptr noundef nonnull %0, ptr noundef null, ptr noundef nonnull @.str.17, ptr noundef nonnull @.str.2, ptr noundef nonnull @.str.18) #4
  %16 = load ptr, ptr %0, align 8
  %17 = getelementptr inbounds i8, ptr %16, i64 168
  %18 = load ptr, ptr %17, align 8
  %19 = inttoptr i64 %15 to ptr
  %20 = tail call ptr %18(ptr noundef nonnull %0, ptr noundef %19) #4
  store ptr %20, ptr @mgmt_origin, align 8
  %21 = tail call i64 @JNU_GetStaticFieldByName(ptr noundef nonnull %0, ptr noundef null, ptr noundef nonnull @.str.17, ptr noundef nonnull @.str.3, ptr noundef nonnull @.str.18) #4
  %22 = load ptr, ptr %0, align 8
  %23 = getelementptr inbounds i8, ptr %22, i64 168
  %24 = load ptr, ptr %23, align 8
  %25 = inttoptr i64 %21 to ptr
  %26 = tail call ptr %24(ptr noundef nonnull %0, ptr noundef %25) #4
  store ptr %26, ptr @envvar_origin, align 8
  %27 = tail call i64 @JNU_GetStaticFieldByName(ptr noundef nonnull %0, ptr noundef null, ptr noundef nonnull @.str.17, ptr noundef nonnull @.str.4, ptr noundef nonnull @.str.18) #4
  %28 = load ptr, ptr %0, align 8
  %29 = getelementptr inbounds i8, ptr %28, i64 168
  %30 = load ptr, ptr %29, align 8
  %31 = inttoptr i64 %27 to ptr
  %32 = tail call ptr %30(ptr noundef nonnull %0, ptr noundef %31) #4
  store ptr %32, ptr @config_file_origin, align 8
  %33 = tail call i64 @JNU_GetStaticFieldByName(ptr noundef nonnull %0, ptr noundef null, ptr noundef nonnull @.str.17, ptr noundef nonnull @.str.5, ptr noundef nonnull @.str.18) #4
  %34 = load ptr, ptr %0, align 8
  %35 = getelementptr inbounds i8, ptr %34, i64 168
  %36 = load ptr, ptr %35, align 8
  %37 = inttoptr i64 %33 to ptr
  %38 = tail call ptr %36(ptr noundef nonnull %0, ptr noundef %37) #4
  store ptr %38, ptr @ergo_origin, align 8
  %39 = tail call i64 @JNU_GetStaticFieldByName(ptr noundef nonnull %0, ptr noundef null, ptr noundef nonnull @.str.17, ptr noundef nonnull @.str.6, ptr noundef nonnull @.str.18) #4
  %40 = load ptr, ptr %0, align 8
  %41 = getelementptr inbounds i8, ptr %40, i64 168
  %42 = load ptr, ptr %41, align 8
  %43 = inttoptr i64 %39 to ptr
  %44 = tail call ptr %42(ptr noundef nonnull %0, ptr noundef %43) #4
  store ptr %44, ptr @attach_origin, align 8
  %45 = tail call i64 @JNU_GetStaticFieldByName(ptr noundef nonnull %0, ptr noundef null, ptr noundef nonnull @.str.17, ptr noundef nonnull @.str.7, ptr noundef nonnull @.str.18) #4
  %46 = load ptr, ptr %0, align 8
  %47 = getelementptr inbounds i8, ptr %46, i64 168
  %48 = load ptr, ptr %47, align 8
  %49 = inttoptr i64 %45 to ptr
  %50 = tail call ptr %48(ptr noundef nonnull %0, ptr noundef %49) #4
  store ptr %50, ptr @other_origin, align 8
  ret void
}